; Function Attrs: mustprogress uwtable
define void @_ZN6casadi11CollocationC2ERKNSt7__cxx1112basic_stringIcSt11char_traitsIcESaIcEEERKNS_8FunctionEdRKSt6vectorIdSaIdEE(ptr noundef nonnull align 8 dereferenceable(2016) %0, ptr noundef nonnull align 8 dereferenceable(32) %1, ptr noundef nonnull align 8 dereferenceable(8) %2, double noundef %3, ptr noundef nonnull align 8 dereferenceable(24) %4) unnamed_addr #3 align 2 {
  tail call void @_ZN6casadi27ImplicitFixedStepIntegratorC2ERKNSt7__cxx1112basic_stringIcSt11char_traitsIcESaIcEEERKNS_8FunctionEdRKSt6vectorIdSaIdEE(ptr noundef nonnull align 8 dereferenceable(1976) %0, ptr noundef nonnull align 8 dereferenceable(32) %1, ptr noundef nonnull align 8 dereferenceable(8) %2, double noundef %3, ptr noundef nonnull align 8 dereferenceable(24) %4)
  store ptr getelementptr inbounds ({ [125 x ptr], [3 x ptr] }, ptr @_ZTVN6casadi11CollocationE, i64 0, i32 0, i64 2), ptr %0, align 8
  %6 = getelementptr inbounds i8, ptr %0, i64 1520
  store ptr getelementptr inbounds ({ [125 x ptr], [3 x ptr] }, ptr @_ZTVN6casadi11CollocationE, i64 0, i32 1, i64 2), ptr %6, align 8
  %7 = getelementptr inbounds i8, ptr %0, i64 1984
  tail call void @_ZNSt7__cxx1112basic_stringIcSt11char_traitsIcESaIcEEC1Ev(ptr noundef nonnull align 8 dereferenceable(32) %7) #18
  ret void
}